; Function Attrs: mustprogress nounwind uwtable
define dso_local void @_ZN6crypto12SymmetricKeyD2Ev(ptr noundef nonnull align 8 dereferenceable(40) %this) unnamed_addr #0 align 2 personality ptr @__gxx_personality_v0 {
entry:
  store ptr getelementptr inbounds ({ [4 x ptr] }, ptr @_ZTVN6crypto12SymmetricKeyE, i64 0, i32 0, i64 2), ptr %this, align 8
  %key_ = getelementptr inbounds i8, ptr %this, i64 8
  %call = tail call ptr @_ZNSt7__cxx1112basic_stringIcSt11char_traitsIcESaIcEE5beginEv(ptr noundef nonnull align 8 dereferenceable(32) %key_) #8
  %call4 = tail call ptr @_ZNSt7__cxx1112basic_stringIcSt11char_traitsIcESaIcEE3endEv(ptr noundef nonnull align 8 dereferenceable(32) %key_) #8
  %tobool.not.i.i.i.i = icmp eq ptr %call4, %call
  br i1 %tobool.not.i.i.i.i, label %invoke.cont, label %if.then.i.i.i.i

if.then.i.i.i.i:                                  ; preds = %entry
  %sub.ptr.rhs.cast.i.i.i.i = ptrtoint ptr %call to i64
  %sub.ptr.lhs.cast.i.i.i.i = ptrtoint ptr %call4 to i64
  %sub.ptr.sub.i.i.i.i = sub i64 %sub.ptr.lhs.cast.i.i.i.i, %sub.ptr.rhs.cast.i.i.i.i
  tail call void @llvm.memset.p0.i64(ptr align 1 %call, i8 0, i64 %sub.ptr.sub.i.i.i.i, i1 false)
  br label %invoke.cont

invoke.cont:                                      ; preds = %if.then.i.i.i.i, %entry
  tail call void @_ZNSt7__cxx1112basic_stringIcSt11char_traitsIcESaIcEED1Ev(ptr noundef nonnull align 8 dereferenceable(32) %key_) #8
  ret void
}